; Function Attrs: nounwind uwtable
define noalias noundef nonnull ptr @l___private_Lean_Meta_WHNF_0__Lean_Meta_useWHNFCache(ptr noundef %0, ptr noundef readonly captures(none) %1, ptr readnone captures(none) %2, ptr readnone captures(none) %3, ptr readnone captures(none) %4, ptr noundef %5) local_unnamed_addr #1 {
  %7 = tail call zeroext i8 @l_Lean_Expr_hasFVar(ptr noundef %0) #5
  %8 = icmp eq i8 %7, 0
  br i1 %8, label %9, label %34

9:                                                ; preds = %6
  %10 = tail call zeroext i8 @l_Lean_Expr_hasExprMVar(ptr noundef %0) #5
  %11 = icmp eq i8 %10, 0
  br i1 %11, label %12, label %30

12:                                               ; preds = %9
  %13 = getelementptr inbounds nuw i8, ptr %1, i64 56
  %14 = load ptr, ptr %13, align 8, !tbaa !12
  %15 = ptrtoint ptr %14 to i64
  %16 = and i64 %15, 1
  %.not.i = icmp eq i64 %16, 0
  br i1 %.not.i, label %20, label %17

17:                                               ; preds = %12
  %18 = lshr i64 %15, 1
  %19 = trunc i64 %18 to i32
  br label %lean_obj_tag.exit

20:                                               ; preds = %12
  %21 = getelementptr i8, ptr %14, i64 4
  %.val.i = load i32, ptr %21, align 4
  %22 = lshr i32 %.val.i, 24
  br label %lean_obj_tag.exit

lean_obj_tag.exit:                                ; preds = %17, %20
  %.0.i = phi i32 [ %19, %17 ], [ %22, %20 ]
  %23 = icmp eq i32 %.0.i, 0
  tail call void @lean_inc_heartbeat() #5
  %24 = tail call noalias ptr @mi_malloc_small(i64 noundef 24) #5
  %25 = icmp eq ptr %24, null
  br i1 %23, label %26, label %28

26:                                               ; preds = %lean_obj_tag.exit
  br i1 %25, label %27, label %lean_alloc_ctor.exit

27:                                               ; preds = %26
  tail call void @lean_internal_panic_out_of_memory() #4
  unreachable

28:                                               ; preds = %lean_obj_tag.exit
  br i1 %25, label %29, label %lean_alloc_ctor.exit

29:                                               ; preds = %28
  tail call void @lean_internal_panic_out_of_memory() #4
  unreachable

30:                                               ; preds = %9
  tail call void @lean_inc_heartbeat() #5
  %31 = tail call noalias ptr @mi_malloc_small(i64 noundef 24) #5
  %32 = icmp eq ptr %31, null
  br i1 %32, label %33, label %lean_alloc_ctor.exit

33:                                               ; preds = %30
  tail call void @lean_internal_panic_out_of_memory() #4
  unreachable

34:                                               ; preds = %6
  tail call void @lean_inc_heartbeat() #5
  %35 = tail call noalias ptr @mi_malloc_small(i64 noundef 24) #5
  %36 = icmp eq ptr %35, null
  br i1 %36, label %37, label %lean_alloc_ctor.exit

37:                                               ; preds = %34
  tail call void @lean_internal_panic_out_of_memory() #4
  unreachable

lean_alloc_ctor.exit:                             ; preds = %34, %30, %28, %26
  %.sink38 = phi ptr [ %24, %26 ], [ %24, %28 ], [ %31, %30 ], [ %35, %34 ]
  %.sink = phi ptr [ inttoptr (i64 3 to ptr), %26 ], [ inttoptr (i64 1 to ptr), %28 ], [ inttoptr (i64 1 to ptr), %30 ], [ inttoptr (i64 1 to ptr), %34 ]
  %38 = getelementptr inbounds nuw i8, ptr %.sink38, i64 4
  store i32 1, ptr %.sink38, align 4, !tbaa !4
  store i32 131096, ptr %38, align 4
  %39 = getelementptr inbounds nuw i8, ptr %.sink38, i64 8
  store ptr %.sink, ptr %39, align 8, !tbaa !12
  %40 = getelementptr inbounds nuw i8, ptr %.sink38, i64 16
  store ptr %5, ptr %40, align 8, !tbaa !12
  ret ptr %.sink38
}